(lp0
(S'cppflags'
p1
ccopy_reg
_reconstructor
p2
(cino.utils
SpaceList
p3
c__builtin__
list
p4
(lp5
S'-mmcu=atmega328p'
p6
aS'-DF_CPU=16000000L'
p7
aS'-DARDUINO=105'
p8
aS'-I/usr/share/arduino/hardware/arduino/cores/arduino'
p9
aS'-ffunction-sections'
p10
aS'-fdata-sections'
p11
aS'-g'
p12
aS'-Os'
p13
aS'-w'
p14
aS'-I/usr/share/arduino/hardware/arduino/variants/standard'
p15
aS'-I/usr/local/share/arduino/libraries/Servo'
p16
aS'-I/usr/share/arduino/hardware/arduino/cores/arduino'
p17
aS'-I/usr/share/arduino/hardware/arduino/cores/arduino/avr-libc'
p18
atp19
Rp20
tp21
a(S'version.txt'
p22
S'/usr/local/share/arduino/lib/version.txt'
p23
tp24
a(S'used_libs'
p25
(lp26
S'/usr/local/share/arduino/libraries/Servo'
p27
aS'/usr/share/arduino/hardware/arduino/cores/arduino'
p28
atp29
a(S'cc'
p30
S'/usr/share/arduino/hardware/tools/avr/bin/avr-gcc'
p31
tp32
a(S'make'
p33
S'/usr/share/arduino/hardware/tools/avr/bin/make'
p34
tp35
a(S'build_dir'
p36
S'.build/uno'
p37
tp38
a(S'arduino_core_dir'
p39
g28
tp40
a(S'boards.txt'
p41
(lp42
S'/usr/local/share/arduino/hardware/arduino/boards.txt'
p43
aS'/usr/share/arduino/hardware/arduino/boards.txt'
p44
atp45
a(S'cxxflags'
p46
g2
(g3
g4
(lp47
S'-fno-exceptions'
p48
atp49
Rp50
tp51
a(S'arduino_variants_dir'
p52
S'/usr/share/arduino/hardware/arduino/variants'
p53
tp54
a(S'deps'
p55
g2
(g3
g4
(lp56
S'.build/uno/src/dependencies.d'
p57
aS'.build/uno/Servo/dependencies.d'
p58
aS'.build/uno/arduino/dependencies.d'
p59
atp60
Rp61
tp62
a(S'ar'
p63
S'/usr/share/arduino/hardware/tools/avr/bin/avr-ar'
p64
tp65
a(S'names'
p66
(dp67
S'cpp'
p68
S'%s.cpp'
p69
sS'obj'
p70
S'%s.o'
p71
sg55
S'%s.d'
p72
sS'lib'
p73
S'lib%s.a'
p74
stp75
a(S'cflags'
p76
g2
(g3
g4
(lp77
tp78
Rp79
tp80
a(S'ldflags'
p81
g2
(g3
g4
(lp82
g6
aS'-Wl,-Os'
p83
aS'-Wl,--gc-sections'
p84
atp85
Rp86
tp87
a(S'arduino_libraries_dir'
p88
S'/usr/local/share/arduino/libraries'
p89
tp90
a(S'arduino_lib_version'
p91
g2
(cino.environment
Version
p92
c__builtin__
tuple
p93
(I1
I0
I5
tp94
tp95
Rp96
tp97
a(S'objcopy'
p98
S'/usr/share/arduino/hardware/tools/avr/bin/avr-objcopy'
p99
tp100
a(S'board_models'
p101
cino.environment
BoardModels
p102
((lp103
(lp104
S'uno'
p105
a(dp106
S'build'
p107
(dp108
S'core'
p109
S'arduino'
p110
sS'mcu'
p111
S'atmega328p'
p112
sS'f_cpu'
p113
S'16000000L'
p114
sS'variant'
p115
S'standard'
p116
ssS'bootloader'
p117
(dp118
S'extended_fuses'
p119
S'0x05'
p120
sS'high_fuses'
p121
S'0xde'
p122
sS'low_fuses'
p123
S'0xff'
p124
sS'lock_bits'
p125
S'0x0F'
p126
sS'file'
p127
S'optiboot_atmega328.hex'
p128
sS'path'
p129
S'optiboot'
p130
sS'unlock_bits'
p131
S'0x3F'
p132
ssS'upload'
p133
(dp134
S'speed'
p135
S'115200'
p136
sS'maximum_size'
p137
S'32256'
p138
sS'protocol'
p139
S'arduino'
p140
ssS'name'
p141
S'Arduino Uno'
p142
sS'_coredir'
p143
S'/usr/share/arduino/hardware/arduino'
p144
saa(lp145
S'atmega328'
p146
a(dp147
S'build'
p148
(dp149
S'core'
p150
S'arduino'
p151
sS'mcu'
p152
S'atmega328p'
p153
sS'f_cpu'
p154
S'16000000L'
p155
sS'variant'
p156
S'standard'
p157
ssS'bootloader'
p158
(dp159
S'extended_fuses'
p160
S'0x05'
p161
sS'high_fuses'
p162
S'0xDA'
p163
sS'low_fuses'
p164
S'0xFF'
p165
sS'lock_bits'
p166
S'0x0F'
p167
sS'file'
p168
S'ATmegaBOOT_168_atmega328.hex'
p169
sS'path'
p170
S'atmega'
p171
sS'unlock_bits'
p172
S'0x3F'
p173
ssS'upload'
p174
(dp175
S'speed'
p176
S'57600'
p177
sS'maximum_size'
p178
S'30720'
p179
sS'protocol'
p180
S'arduino'
p181
ssS'name'
p182
S'Arduino Duemilanove w/ ATmega328'
p183
sg143
S'/usr/share/arduino/hardware/arduino'
p184
saa(lp185
S'diecimila'
p186
a(dp187
S'build'
p188
(dp189
S'core'
p190
S'arduino'
p191
sS'mcu'
p192
S'atmega168'
p193
sS'f_cpu'
p194
S'16000000L'
p195
sS'variant'
p196
S'standard'
p197
ssS'bootloader'
p198
(dp199
S'extended_fuses'
p200
S'0x00'
p201
sS'high_fuses'
p202
S'0xdd'
p203
sS'low_fuses'
p204
S'0xff'
p205
sS'lock_bits'
p206
S'0x0F'
p207
sS'file'
p208
S'ATmegaBOOT_168_diecimila.hex'
p209
sS'path'
p210
S'atmega'
p211
sS'unlock_bits'
p212
S'0x3F'
p213
ssS'upload'
p214
(dp215
S'speed'
p216
S'19200'
p217
sS'maximum_size'
p218
S'14336'
p219
sS'protocol'
p220
S'arduino'
p221
ssS'name'
p222
S'Arduino Diecimila or Duemilanove w/ ATmega168'
p223
sg143
S'/usr/share/arduino/hardware/arduino'
p224
saa(lp225
S'nano328'
p226
a(dp227
S'build'
p228
(dp229
S'core'
p230
S'arduino'
p231
sS'mcu'
p232
S'atmega328p'
p233
sS'f_cpu'
p234
S'16000000L'
p235
sS'variant'
p236
S'eightanaloginputs'
p237
ssS'bootloader'
p238
(dp239
S'extended_fuses'
p240
S'0x05'
p241
sS'high_fuses'
p242
S'0xDA'
p243
sS'low_fuses'
p244
S'0xFF'
p245
sS'lock_bits'
p246
S'0x0F'
p247
sS'file'
p248
S'ATmegaBOOT_168_atmega328.hex'
p249
sS'path'
p250
S'atmega'
p251
sS'unlock_bits'
p252
S'0x3F'
p253
ssS'upload'
p254
(dp255
S'speed'
p256
S'57600'
p257
sS'maximum_size'
p258
S'30720'
p259
sS'protocol'
p260
S'arduino'
p261
ssS'name'
p262
S'Arduino Nano w/ ATmega328'
p263
sg143
S'/usr/share/arduino/hardware/arduino'
p264
saa(lp265
S'nano'
p266
a(dp267
S'build'
p268
(dp269
S'core'
p270
S'arduino'
p271
sS'mcu'
p272
S'atmega168'
p273
sS'f_cpu'
p274
S'16000000L'
p275
sS'variant'
p276
S'eightanaloginputs'
p277
ssS'bootloader'
p278
(dp279
S'extended_fuses'
p280
S'0x00'
p281
sS'high_fuses'
p282
S'0xdd'
p283
sS'low_fuses'
p284
S'0xff'
p285
sS'lock_bits'
p286
S'0x0F'
p287
sS'file'
p288
S'ATmegaBOOT_168_diecimila.hex'
p289
sS'path'
p290
S'atmega'
p291
sS'unlock_bits'
p292
S'0x3F'
p293
ssS'upload'
p294
(dp295
S'speed'
p296
S'19200'
p297
sS'maximum_size'
p298
S'14336'
p299
sS'protocol'
p300
S'arduino'
p301
ssS'name'
p302
S'Arduino Nano w/ ATmega168'
p303
sg143
S'/usr/share/arduino/hardware/arduino'
p304
saa(lp305
S'mega2560'
p306
a(dp307
S'build'
p308
(dp309
S'core'
p310
S'arduino'
p311
sS'mcu'
p312
S'atmega2560'
p313
sS'f_cpu'
p314
S'16000000L'
p315
sS'variant'
p316
S'mega'
p317
ssS'bootloader'
p318
(dp319
S'extended_fuses'
p320
S'0xFD'
p321
sS'high_fuses'
p322
S'0xD8'
p323
sS'low_fuses'
p324
S'0xFF'
p325
sS'lock_bits'
p326
S'0x0F'
p327
sS'file'
p328
S'stk500boot_v2_mega2560.hex'
p329
sS'path'
p330
S'stk500v2'
p331
sS'unlock_bits'
p332
S'0x3F'
p333
ssS'upload'
p334
(dp335
S'speed'
p336
S'115200'
p337
sS'maximum_size'
p338
S'258048'
p339
sS'protocol'
p340
S'wiring'
p341
ssS'name'
p342
S'Arduino Mega 2560 or Mega ADK'
p343
sg143
S'/usr/share/arduino/hardware/arduino'
p344
saa(lp345
S'mega'
p346
a(dp347
S'build'
p348
(dp349
S'core'
p350
S'arduino'
p351
sS'mcu'
p352
S'atmega1280'
p353
sS'f_cpu'
p354
S'16000000L'
p355
sS'variant'
p356
S'mega'
p357
ssS'bootloader'
p358
(dp359
S'extended_fuses'
p360
S'0xF5'
p361
sS'high_fuses'
p362
S'0xDA'
p363
sS'low_fuses'
p364
S'0xFF'
p365
sS'lock_bits'
p366
S'0x0F'
p367
sS'file'
p368
S'ATmegaBOOT_168_atmega1280.hex'
p369
sS'path'
p370
S'atmega'
p371
sS'unlock_bits'
p372
S'0x3F'
p373
ssS'upload'
p374
(dp375
S'speed'
p376
S'57600'
p377
sS'maximum_size'
p378
S'126976'
p379
sS'protocol'
p380
S'arduino'
p381
ssS'name'
p382
S'Arduino Mega (ATmega1280)'
p383
sg143
S'/usr/share/arduino/hardware/arduino'
p384
saa(lp385
S'leonardo'
p386
a(dp387
S'build'
p388
(dp389
S'core'
p390
S'arduino'
p391
sS'f_cpu'
p392
S'16000000L'
p393
sS'vid'
p394
S'0x2341'
p395
sS'pid'
p396
S'0x8036'
p397
sS'variant'
p398
S'leonardo'
p399
sS'mcu'
p400
S'atmega32u4'
p401
ssS'bootloader'
p402
(dp403
S'extended_fuses'
p404
S'0xcb'
p405
sS'high_fuses'
p406
S'0xd8'
p407
sS'low_fuses'
p408
S'0xff'
p409
sS'lock_bits'
p410
S'0x2F'
p411
sS'file'
p412
S'Caterina-Leonardo.hex'
p413
sS'path'
p414
S'caterina'
p415
sS'unlock_bits'
p416
S'0x3F'
p417
ssS'upload'
p418
(dp419
S'speed'
p420
S'57600'
p421
sS'maximum_size'
p422
S'28672'
p423
sS'protocol'
p424
S'avr109'
p425
sS'disable_flushing'
p426
S'true'
p427
ssS'name'
p428
S'Arduino Leonardo'
p429
sg143
S'/usr/share/arduino/hardware/arduino'
p430
saa(lp431
S'esplora'
p432
a(dp433
S'build'
p434
(dp435
S'core'
p436
S'arduino'
p437
sS'f_cpu'
p438
S'16000000L'
p439
sS'vid'
p440
S'0x2341'
p441
sS'pid'
p442
S'0x803C'
p443
sS'variant'
p444
S'leonardo'
p445
sS'mcu'
p446
S'atmega32u4'
p447
ssS'bootloader'
p448
(dp449
S'extended_fuses'
p450
S'0xcb'
p451
sS'high_fuses'
p452
S'0xd8'
p453
sS'low_fuses'
p454
S'0xff'
p455
sS'lock_bits'
p456
S'0x2F'
p457
sS'file'
p458
S'Caterina-Esplora.hex'
p459
sS'path'
p460
S'caterina'
p461
sS'unlock_bits'
p462
S'0x3F'
p463
ssS'upload'
p464
(dp465
S'speed'
p466
S'57600'
p467
sS'maximum_size'
p468
S'28672'
p469
sS'protocol'
p470
S'avr109'
p471
sS'disable_flushing'
p472
S'true'
p473
ssS'name'
p474
S'Arduino Esplora'
p475
sg143
S'/usr/share/arduino/hardware/arduino'
p476
saa(lp477
S'micro'
p478
a(dp479
S'build'
p480
(dp481
S'core'
p482
S'arduino'
p483
sS'f_cpu'
p484
S'16000000L'
p485
sS'vid'
p486
S'0x2341'
p487
sS'pid'
p488
S'0x8037'
p489
sS'variant'
p490
S'micro'
p491
sS'mcu'
p492
S'atmega32u4'
p493
ssS'bootloader'
p494
(dp495
S'extended_fuses'
p496
S'0xcb'
p497
sS'high_fuses'
p498
S'0xd8'
p499
sS'low_fuses'
p500
S'0xff'
p501
sS'lock_bits'
p502
S'0x2F'
p503
sS'file'
p504
S'Caterina-Micro.hex'
p505
sS'path'
p506
S'caterina'
p507
sS'unlock_bits'
p508
S'0x3F'
p509
ssS'upload'
p510
(dp511
S'speed'
p512
S'57600'
p513
sS'maximum_size'
p514
S'28672'
p515
sS'protocol'
p516
S'avr109'
p517
sS'disable_flushing'
p518
S'true'
p519
ssS'name'
p520
S'Arduino Micro'
p521
sg143
S'/usr/share/arduino/hardware/arduino'
p522
saa(lp523
S'mini328'
p524
a(dp525
S'build'
p526
(dp527
S'core'
p528
S'arduino'
p529
sS'mcu'
p530
S'atmega328p'
p531
sS'f_cpu'
p532
S'16000000L'
p533
sS'variant'
p534
S'eightanaloginputs'
p535
ssS'bootloader'
p536
(dp537
S'extended_fuses'
p538
S'0x05'
p539
sS'high_fuses'
p540
S'0xd8'
p541
sS'low_fuses'
p542
S'0xff'
p543
sS'lock_bits'
p544
S'0x0F'
p545
sS'file'
p546
S'optiboot_atmega328-Mini.hex'
p547
sS'path'
p548
S'optiboot'
p549
sS'unlock_bits'
p550
S'0x3F'
p551
ssS'upload'
p552
(dp553
S'speed'
p554
S'115200'
p555
sS'maximum_size'
p556
S'28672'
p557
sS'protocol'
p558
S'arduino'
p559
ssS'name'
p560
S'Arduino Mini w/ ATmega328'
p561
sg143
S'/usr/share/arduino/hardware/arduino'
p562
saa(lp563
S'mini'
p564
a(dp565
S'build'
p566
(dp567
S'core'
p568
S'arduino'
p569
sS'mcu'
p570
S'atmega168'
p571
sS'f_cpu'
p572
S'16000000L'
p573
sS'variant'
p574
S'eightanaloginputs'
p575
ssS'bootloader'
p576
(dp577
S'extended_fuses'
p578
S'0x00'
p579
sS'high_fuses'
p580
S'0xdd'
p581
sS'low_fuses'
p582
S'0xff'
p583
sS'lock_bits'
p584
S'0x0F'
p585
sS'file'
p586
S'ATmegaBOOT_168_ng.hex'
p587
sS'path'
p588
S'atmega'
p589
sS'unlock_bits'
p590
S'0x3F'
p591
ssS'upload'
p592
(dp593
S'speed'
p594
S'19200'
p595
sS'maximum_size'
p596
S'14336'
p597
sS'protocol'
p598
S'arduino'
p599
ssS'name'
p600
S'Arduino Mini w/ ATmega168'
p601
sg143
S'/usr/share/arduino/hardware/arduino'
p602
saa(lp603
S'ethernet'
p604
a(dp605
S'build'
p606
(dp607
S'f_cpu'
p608
S'16000000L'
p609
sS'mcu'
p610
S'atmega328p'
p611
sS'variant'
p612
S'standard'
p613
sS'core'
p614
S'arduino'
p615
ssS'bootloader'
p616
(dp617
S'extended_fuses'
p618
S'0x05'
p619
sS'high_fuses'
p620
S'0xde'
p621
sS'low_fuses'
p622
S'0xff'
p623
sS'lock_bits'
p624
S'0x0F'
p625
sS'file'
p626
S'optiboot_atmega328.hex'
p627
sS'path'
p628
S'optiboot'
p629
sS'unlock_bits'
p630
S'0x3F'
p631
ssS'upload'
p632
(dp633
S'speed'
p634
S'115200'
p635
sS'maximum_size'
p636
S'32256'
p637
sS'protocol'
p638
S'arduino'
p639
ssS'name'
p640
S'Arduino Ethernet'
p641
sg143
S'/usr/share/arduino/hardware/arduino'
p642
saa(lp643
S'fio'
p644
a(dp645
S'build'
p646
(dp647
S'core'
p648
S'arduino'
p649
sS'mcu'
p650
S'atmega328p'
p651
sS'f_cpu'
p652
S'8000000L'
p653
sS'variant'
p654
S'eightanaloginputs'
p655
ssS'bootloader'
p656
(dp657
S'extended_fuses'
p658
S'0x05'
p659
sS'high_fuses'
p660
S'0xDA'
p661
sS'low_fuses'
p662
S'0xFF'
p663
sS'lock_bits'
p664
S'0x0F'
p665
sS'file'
p666
S'ATmegaBOOT_168_atmega328_pro_8MHz.hex'
p667
sS'path'
p668
S'arduino:atmega'
p669
sS'unlock_bits'
p670
S'0x3F'
p671
ssS'upload'
p672
(dp673
S'speed'
p674
S'57600'
p675
sS'maximum_size'
p676
S'30720'
p677
sS'protocol'
p678
S'arduino'
p679
ssS'name'
p680
S'Arduino Fio'
p681
sg143
S'/usr/share/arduino/hardware/arduino'
p682
saa(lp683
S'bt328'
p684
a(dp685
S'build'
p686
(dp687
S'core'
p688
S'arduino'
p689
sS'mcu'
p690
S'atmega328p'
p691
sS'f_cpu'
p692
S'16000000L'
p693
sS'variant'
p694
S'eightanaloginputs'
p695
ssS'bootloader'
p696
(dp697
S'extended_fuses'
p698
S'0x05'
p699
sS'high_fuses'
p700
S'0xd8'
p701
sS'low_fuses'
p702
S'0xff'
p703
sS'lock_bits'
p704
S'0x0F'
p705
sS'file'
p706
S'ATmegaBOOT_168_atmega328_bt.hex'
p707
sS'path'
p708
S'bt'
p709
sS'unlock_bits'
p710
S'0x3F'
p711
ssS'upload'
p712
(dp713
S'speed'
p714
S'19200'
p715
sS'maximum_size'
p716
S'28672'
p717
sS'protocol'
p718
S'arduino'
p719
sS'disable_flushing'
p720
S'true'
p721
ssS'name'
p722
S'Arduino BT w/ ATmega328'
p723
sg143
S'/usr/share/arduino/hardware/arduino'
p724
saa(lp725
S'bt'
p726
a(dp727
S'build'
p728
(dp729
S'core'
p730
S'arduino'
p731
sS'mcu'
p732
S'atmega168'
p733
sS'f_cpu'
p734
S'16000000L'
p735
sS'variant'
p736
S'eightanaloginputs'
p737
ssS'bootloader'
p738
(dp739
S'extended_fuses'
p740
S'0x00'
p741
sS'high_fuses'
p742
S'0xdd'
p743
sS'low_fuses'
p744
S'0xff'
p745
sS'lock_bits'
p746
S'0x0F'
p747
sS'file'
p748
S'ATmegaBOOT_168.hex'
p749
sS'path'
p750
S'bt'
p751
sS'unlock_bits'
p752
S'0x3F'
p753
ssS'upload'
p754
(dp755
S'speed'
p756
S'19200'
p757
sS'maximum_size'
p758
S'14336'
p759
sS'protocol'
p760
S'arduino'
p761
sS'disable_flushing'
p762
S'true'
p763
ssS'name'
p764
S'Arduino BT w/ ATmega168'
p765
sg143
S'/usr/share/arduino/hardware/arduino'
p766
saa(lp767
S'LilyPadUSB'
p768
a(dp769
S'build'
p770
(dp771
S'core'
p772
S'arduino'
p773
sS'f_cpu'
p774
S'8000000L'
p775
sS'vid'
p776
S'0x1B4F'
p777
sS'pid'
p778
S'0x9208'
p779
sS'variant'
p780
S'leonardo'
p781
sS'mcu'
p782
S'atmega32u4'
p783
ssS'bootloader'
p784
(dp785
S'extended_fuses'
p786
S'0xce'
p787
sS'high_fuses'
p788
S'0xd8'
p789
sS'low_fuses'
p790
S'0xff'
p791
sS'lock_bits'
p792
S'0x2F'
p793
sS'file'
p794
S'Caterina-LilyPadUSB.hex'
p795
sS'path'
p796
S'caterina-LilyPadUSB'
p797
sS'unlock_bits'
p798
S'0x3F'
p799
ssS'upload'
p800
(dp801
S'speed'
p802
S'57600'
p803
sS'maximum_size'
p804
S'28672'
p805
sS'protocol'
p806
S'avr109'
p807
sS'disable_flushing'
p808
S'true'
p809
ssS'name'
p810
S'LilyPad Arduino USB'
p811
sg143
S'/usr/share/arduino/hardware/arduino'
p812
saa(lp813
S'lilypad328'
p814
a(dp815
S'build'
p816
(dp817
S'core'
p818
S'arduino'
p819
sS'mcu'
p820
S'atmega328p'
p821
sS'f_cpu'
p822
S'8000000L'
p823
sS'variant'
p824
S'standard'
p825
ssS'bootloader'
p826
(dp827
S'extended_fuses'
p828
S'0x05'
p829
sS'high_fuses'
p830
S'0xDA'
p831
sS'low_fuses'
p832
S'0xFF'
p833
sS'lock_bits'
p834
S'0x0F'
p835
sS'file'
p836
S'ATmegaBOOT_168_atmega328_pro_8MHz.hex'
p837
sS'path'
p838
S'atmega'
p839
sS'unlock_bits'
p840
S'0x3F'
p841
ssS'upload'
p842
(dp843
S'speed'
p844
S'57600'
p845
sS'maximum_size'
p846
S'30720'
p847
sS'protocol'
p848
S'arduino'
p849
ssS'name'
p850
S'LilyPad Arduino w/ ATmega328'
p851
sg143
S'/usr/share/arduino/hardware/arduino'
p852
saa(lp853
S'lilypad'
p854
a(dp855
S'build'
p856
(dp857
S'core'
p858
S'arduino'
p859
sS'mcu'
p860
S'atmega168'
p861
sS'f_cpu'
p862
S'8000000L'
p863
sS'variant'
p864
S'standard'
p865
ssS'bootloader'
p866
(dp867
S'extended_fuses'
p868
S'0x00'
p869
sS'high_fuses'
p870
S'0xdd'
p871
sS'low_fuses'
p872
S'0xe2'
p873
sS'lock_bits'
p874
S'0x0F'
p875
sS'file'
p876
S'LilyPadBOOT_168.hex'
p877
sS'path'
p878
S'lilypad'
p879
sS'unlock_bits'
p880
S'0x3F'
p881
ssS'upload'
p882
(dp883
S'speed'
p884
S'19200'
p885
sS'maximum_size'
p886
S'14336'
p887
sS'protocol'
p888
S'arduino'
p889
ssS'name'
p890
S'LilyPad Arduino w/ ATmega168'
p891
sg143
S'/usr/share/arduino/hardware/arduino'
p892
saa(lp893
S'pro5v328'
p894
a(dp895
S'build'
p896
(dp897
S'core'
p898
S'arduino'
p899
sS'mcu'
p900
S'atmega328p'
p901
sS'f_cpu'
p902
S'16000000L'
p903
sS'variant'
p904
S'standard'
p905
ssS'bootloader'
p906
(dp907
S'extended_fuses'
p908
S'0x05'
p909
sS'high_fuses'
p910
S'0xDA'
p911
sS'low_fuses'
p912
S'0xFF'
p913
sS'lock_bits'
p914
S'0x0F'
p915
sS'file'
p916
S'ATmegaBOOT_168_atmega328.hex'
p917
sS'path'
p918
S'atmega'
p919
sS'unlock_bits'
p920
S'0x3F'
p921
ssS'upload'
p922
(dp923
S'speed'
p924
S'57600'
p925
sS'maximum_size'
p926
S'30720'
p927
sS'protocol'
p928
S'arduino'
p929
ssS'name'
p930
S'Arduino Pro or Pro Mini (5V, 16 MHz) w/ ATmega328'
p931
sg143
S'/usr/share/arduino/hardware/arduino'
p932
saa(lp933
S'pro5v'
p934
a(dp935
S'build'
p936
(dp937
S'core'
p938
S'arduino'
p939
sS'mcu'
p940
S'atmega168'
p941
sS'f_cpu'
p942
S'16000000L'
p943
sS'variant'
p944
S'standard'
p945
ssS'bootloader'
p946
(dp947
S'extended_fuses'
p948
S'0x00'
p949
sS'high_fuses'
p950
S'0xdd'
p951
sS'low_fuses'
p952
S'0xff'
p953
sS'lock_bits'
p954
S'0x0F'
p955
sS'file'
p956
S'ATmegaBOOT_168_diecimila.hex'
p957
sS'path'
p958
S'atmega'
p959
sS'unlock_bits'
p960
S'0x3F'
p961
ssS'upload'
p962
(dp963
S'speed'
p964
S'19200'
p965
sS'maximum_size'
p966
S'14336'
p967
sS'protocol'
p968
S'arduino'
p969
ssS'name'
p970
S'Arduino Pro or Pro Mini (5V, 16 MHz) w/ ATmega168'
p971
sg143
S'/usr/share/arduino/hardware/arduino'
p972
saa(lp973
S'pro328'
p974
a(dp975
S'build'
p976
(dp977
S'core'
p978
S'arduino'
p979
sS'mcu'
p980
S'atmega328p'
p981
sS'f_cpu'
p982
S'8000000L'
p983
sS'variant'
p984
S'standard'
p985
ssS'bootloader'
p986
(dp987
S'extended_fuses'
p988
S'0x05'
p989
sS'high_fuses'
p990
S'0xDA'
p991
sS'low_fuses'
p992
S'0xFF'
p993
sS'lock_bits'
p994
S'0x0F'
p995
sS'file'
p996
S'ATmegaBOOT_168_atmega328_pro_8MHz.hex'
p997
sS'path'
p998
S'atmega'
p999
sS'unlock_bits'
p1000
S'0x3F'
p1001
ssS'upload'
p1002
(dp1003
S'speed'
p1004
S'57600'
p1005
sS'maximum_size'
p1006
S'30720'
p1007
sS'protocol'
p1008
S'arduino'
p1009
ssS'name'
p1010
S'Arduino Pro or Pro Mini (3.3V, 8 MHz) w/ ATmega328'
p1011
sg143
S'/usr/share/arduino/hardware/arduino'
p1012
saa(lp1013
S'pro'
p1014
a(dp1015
S'build'
p1016
(dp1017
S'core'
p1018
S'arduino'
p1019
sS'mcu'
p1020
S'atmega168'
p1021
sS'f_cpu'
p1022
S'8000000L'
p1023
sS'variant'
p1024
S'standard'
p1025
ssS'bootloader'
p1026
(dp1027
S'extended_fuses'
p1028
S'0x00'
p1029
sS'high_fuses'
p1030
S'0xdd'
p1031
sS'low_fuses'
p1032
S'0xc6'
p1033
sS'lock_bits'
p1034
S'0x0F'
p1035
sS'file'
p1036
S'ATmegaBOOT_168_pro_8MHz.hex'
p1037
sS'path'
p1038
S'atmega'
p1039
sS'unlock_bits'
p1040
S'0x3F'
p1041
ssS'upload'
p1042
(dp1043
S'speed'
p1044
S'19200'
p1045
sS'maximum_size'
p1046
S'14336'
p1047
sS'protocol'
p1048
S'arduino'
p1049
ssS'name'
p1050
S'Arduino Pro or Pro Mini (3.3V, 8 MHz) w/ ATmega168'
p1051
sg143
S'/usr/share/arduino/hardware/arduino'
p1052
saa(lp1053
S'atmega168'
p1054
a(dp1055
S'build'
p1056
(dp1057
S'core'
p1058
S'arduino'
p1059
sS'mcu'
p1060
S'atmega168'
p1061
sS'f_cpu'
p1062
S'16000000L'
p1063
sS'variant'
p1064
S'standard'
p1065
ssS'bootloader'
p1066
(dp1067
S'extended_fuses'
p1068
S'0x00'
p1069
sS'high_fuses'
p1070
S'0xdd'
p1071
sS'low_fuses'
p1072
S'0xff'
p1073
sS'lock_bits'
p1074
S'0x0F'
p1075
sS'file'
p1076
S'ATmegaBOOT_168_ng.hex'
p1077
sS'path'
p1078
S'atmega'
p1079
sS'unlock_bits'
p1080
S'0x3F'
p1081
ssS'upload'
p1082
(dp1083
S'speed'
p1084
S'19200'
p1085
sS'maximum_size'
p1086
S'14336'
p1087
sS'protocol'
p1088
S'arduino'
p1089
ssS'name'
p1090
S'Arduino NG or older w/ ATmega168'
p1091
sg143
S'/usr/share/arduino/hardware/arduino'
p1092
saa(lp1093
S'atmega8'
p1094
a(dp1095
S'build'
p1096
(dp1097
S'core'
p1098
S'arduino'
p1099
sS'mcu'
p1100
S'atmega8'
p1101
sS'f_cpu'
p1102
S'16000000L'
p1103
sS'variant'
p1104
S'standard'
p1105
ssS'bootloader'
p1106
(dp1107
S'high_fuses'
p1108
S'0xca'
p1109
sS'low_fuses'
p1110
S'0xdf'
p1111
sS'lock_bits'
p1112
S'0x0F'
p1113
sS'file'
p1114
S'ATmegaBOOT-prod-firmware-2009-11-07.hex'
p1115
sS'path'
p1116
S'atmega8'
p1117
sS'unlock_bits'
p1118
S'0x3F'
p1119
ssS'upload'
p1120
(dp1121
S'speed'
p1122
S'19200'
p1123
sS'maximum_size'
p1124
S'7168'
p1125
sS'protocol'
p1126
S'arduino'
p1127
ssS'name'
p1128
S'Arduino NG or older w/ ATmega8'
p1129
sg143
S'/usr/share/arduino/hardware/arduino'
p1130
saa(lp1131
S'robotControl'
p1132
a(dp1133
S'build'
p1134
(dp1135
S'core'
p1136
S'robot'
p1137
sS'f_cpu'
p1138
S'16000000L'
p1139
sS'vid'
p1140
S'0x2341'
p1141
sS'pid'
p1142
S'0x8038'
p1143
sS'variant'
p1144
S'robot_control'
p1145
sS'mcu'
p1146
S'atmega32u4'
p1147
ssS'bootloader'
p1148
(dp1149
S'extended_fuses'
p1150
S'0xcb'
p1151
sS'high_fuses'
p1152
S'0xd8'
p1153
sS'low_fuses'
p1154
S'0xff'
p1155
sS'lock_bits'
p1156
S'0x2F'
p1157
sS'file'
p1158
S'Caterina-Robot-Control.hex'
p1159
sS'path'
p1160
S'caterina-Arduino_Robot'
p1161
sS'unlock_bits'
p1162
S'0x3F'
p1163
ssS'upload'
p1164
(dp1165
S'speed'
p1166
S'57600'
p1167
sS'maximum_size'
p1168
S'28672'
p1169
sS'protocol'
p1170
S'avr109'
p1171
sS'disable_flushing'
p1172
S'true'
p1173
ssS'name'
p1174
S'Arduino Robot Control'
p1175
sg143
S'/usr/share/arduino/hardware/arduino'
p1176
saa(lp1177
S'robotMotor'
p1178
a(dp1179
S'build'
p1180
(dp1181
S'core'
p1182
S'robot'
p1183
sS'f_cpu'
p1184
S'16000000L'
p1185
sS'vid'
p1186
S'0x2341'
p1187
sS'pid'
p1188
S'0x8039'
p1189
sS'variant'
p1190
S'robot_motor'
p1191
sS'mcu'
p1192
S'atmega32u4'
p1193
ssS'bootloader'
p1194
(dp1195
S'extended_fuses'
p1196
S'0xcb'
p1197
sS'high_fuses'
p1198
S'0xd8'
p1199
sS'low_fuses'
p1200
S'0xff'
p1201
sS'lock_bits'
p1202
S'0x2F'
p1203
sS'file'
p1204
S'Caterina-Robot-Motor.hex'
p1205
sS'path'
p1206
S'caterina-Arduino_Robot'
p1207
sS'unlock_bits'
p1208
S'0x3F'
p1209
ssS'upload'
p1210
(dp1211
S'speed'
p1212
S'57600'
p1213
sS'maximum_size'
p1214
S'28672'
p1215
sS'protocol'
p1216
S'avr109'
p1217
sS'disable_flushing'
p1218
S'true'
p1219
ssS'name'
p1220
S'Arduino Robot Motor'
p1221
sg143
S'/usr/share/arduino/hardware/arduino'
p1222
saatp1223
Rp1224
(dp1225
S'default'
p1226
S'uno'
p1227
sbtp1228
a(S'cxx'
p1229
S'/usr/share/arduino/hardware/tools/avr/bin/avr-g++'
p1230
tp1231
a.